(dp1
S'July 5 2013'
p2
(S'Misc.; protein powder: 26.00'
tp3
sS'July 23 2013'
p4
(S'Coffee; coffee: 2.11'
tp5
sS'July 17 2013'
p6
(S'Food; lunch: 6.69'
tp7
sS'July 29 2013'
p8
(S'Food; lunch: 6.69'
tp9
sS'July 8 2013'
p10
(S'Coffee; coffee: 2.11'
S'Food; lunch: 6.69'
tp11
sS'July 6 2013'
p12
(S'Food; groceries: 43.00'
tp13
sS'July 20 2013'
p14
(S'Coffee; coffee: 2.11'
S'Food; lunch: 6.69'
S'Food; groceries: 50.00'
tp15
sS'July 12 2013'
p16
(S'Coffee; coffee: 2.11'
tp17
sS'July 28 2013'
p18
(S'Coffee; coffee: 2.11'
tp19
sS'July 22 2013'
p20
(S'Food; dinner: 8.65'
tp21
sS'July 14 2013'
p22
(S'Food; groceries: 37.00'
tp23
sS'July 3 2013'
p24
(S'Food; dinner: 8.65'
tp25
sS'July 4 2013'
p26
(S'Misc.; party: 20.00'
tp27
sS'July 10 2013'
p28
(S'Food; dinner: 8.65'
S'Misc.; video game: 20.00'
tp29
sS'July 25 2013'
p30
(S'Food; lunch: 6.69'
tp31
sS'July 13 2013'
p32
(S'Food; lunch: 6.69'
tp33
sS'July 1 2013'
p34
(S'Coffee; coffee: 2.11'
S'Food; lunch: 6.69'
tp35
sS'July 26 2013'
p36
(S'Food; groceries: 35.00'
tp37
sS'July 18 2013'
p38
(S'Food; dinner: 25.00'
tp39
sS'July 15 2013'
p40
(S'Coffee; coffee: 2.11'
tp41
sS'July 2 2013'
p42
(S'Coffee; coffee: 2.11'
tp43
s.